target datalayout = "e-m:e-p270:32:32-p271:32:32-p272:64:64-i64:64-i128:128-f80:128-n8:16:32:64-S128"
target triple = "x86_64-pc-linux-gnu"

%union.pthread_mutex_t = type { %struct.__pthread_mutex_s }
%struct.__pthread_mutex_s = type { i32, i32, i32, i32, i32, i16, i16, %struct.__pthread_internal_list }
%struct.__pthread_internal_list = type { ptr, ptr }
%struct.wolfSSL_RefWithMutex = type { %union.pthread_mutex_t, i32 }
%struct.WOLFSSL_CTX = type <{ ptr, %struct.wolfSSL_RefWithMutex, i32, [4 x i8], %struct.WOLFSSL_BUFFER_INFO, %struct.WOLFSSL_BUFFER_INFO, ptr, ptr, i32, [4 x i8], ptr, i8, i8, [2 x i8], i32, i32, [4 x i8], ptr, ptr, ptr, i8, i16, i8, i8, i8, i16, i16, i16, i16, [2 x i8], i64, ptr, ptr, ptr, ptr, i32, i32, i16, [2 x i8], i32, [10 x i16], i8, [3 x i8], ptr, ptr, i32, [4 x i8], ptr, i8, [7 x i8] }>
%struct.WOLFSSL_BUFFER_INFO = type { ptr, i32 }

; Function Attrs: nounwind uwtable
define i64 @wolfSSL_CTX_get_options(ptr noundef %0) #0 {
  %2 = alloca i64, align 8
  %3 = alloca ptr, align 8
  store ptr %0, ptr %3, align 8, !tbaa !24
  br label %4

4:                                                ; preds = %1
  br label %5

5:                                                ; preds = %4
  br label %6

6:                                                ; preds = %5
  br label %7

7:                                                ; preds = %6
  %8 = load ptr, ptr %3, align 8, !tbaa !24
  %9 = icmp eq ptr %8, null
  br i1 %9, label %10, label %11

10:                                               ; preds = %7
  store i64 -173, ptr %2, align 8
  br label %15

11:                                               ; preds = %7
  %12 = load ptr, ptr %3, align 8, !tbaa !24
  %13 = getelementptr inbounds nuw %struct.WOLFSSL_CTX, ptr %12, i32 0, i32 30
  %14 = load i64, ptr %13, align 8, !tbaa !272
  store i64 %14, ptr %2, align 8
  br label %15

15:                                               ; preds = %11, %10
  %16 = load i64, ptr %2, align 8
  ret i64 %16
}